target datalayout = "e-m:e-p270:32:32-p271:32:32-p272:64:64-i64:64-i128:128-f80:128-n8:16:32:64-S128"
target triple = "x86_64-pc-linux-gnu"

%"class.llvm::SmallVector.34" = type { %"class.llvm::SmallVectorImpl.35", %"struct.llvm::SmallVectorStorage.38" }
%"class.llvm::SmallVectorImpl.35" = type { %"class.llvm::SmallVectorTemplateBase.36" }
%"class.llvm::SmallVectorTemplateBase.36" = type { %"class.llvm::SmallVectorTemplateCommon.37" }
%"class.llvm::SmallVectorTemplateCommon.37" = type { %"class.llvm::SmallVectorBase" }
%"class.llvm::SmallVectorBase" = type { ptr, i32, i32 }
%"struct.llvm::SmallVectorStorage.38" = type { [192 x i8] }
%"class.clang::SanitizerMask" = type { [2 x i64] }
%"class.std::__cxx11::basic_string" = type { %"struct.std::__cxx11::basic_string<char>::_Alloc_hider", i64, %union.anon }
%"struct.std::__cxx11::basic_string<char>::_Alloc_hider" = type { ptr }
%union.anon = type { i64, [8 x i8] }
%"class.llvm::SmallVectorImpl" = type { %"class.llvm::SmallVectorTemplateBase" }
%"class.llvm::SmallVectorTemplateBase" = type { %"class.llvm::SmallVectorTemplateCommon" }
%"class.llvm::SmallVectorTemplateCommon" = type { %"class.llvm::SmallVectorBase" }
%"class.clang::driver::ToolChain" = type { ptr, ptr, %"class.llvm::Triple", ptr, ptr, i32, i32, %"class.llvm::SmallVector", %"class.llvm::SmallVector", %"class.llvm::SmallVector", %"class.std::unique_ptr", %"class.std::unique_ptr", %"class.std::unique_ptr", %"class.std::unique_ptr", %"class.std::unique_ptr", %"class.std::unique_ptr", %"class.std::unique_ptr", %"class.std::unique_ptr", %"class.std::unique_ptr", i8, %"class.std::unique_ptr.2", %"class.llvm::Triple", %"class.std::optional", %"class.std::optional.10", %"class.std::optional.18", %"class.clang::driver::MultilibSet", %"class.llvm::SmallVector.34" }
%"class.llvm::SmallVector" = type { %"class.llvm::SmallVectorImpl", %"struct.llvm::SmallVectorStorage" }
%"struct.llvm::SmallVectorStorage" = type { [512 x i8] }
%"class.std::unique_ptr" = type { %"struct.std::__uniq_ptr_data" }
%"struct.std::__uniq_ptr_data" = type { %"class.std::__uniq_ptr_impl" }
%"class.std::__uniq_ptr_impl" = type { %"class.std::tuple" }
%"class.std::tuple" = type { %"struct.std::_Tuple_impl" }
%"struct.std::_Tuple_impl" = type { %"struct.std::_Head_base.1" }
%"struct.std::_Head_base.1" = type { ptr }
%"class.std::unique_ptr.2" = type { %"struct.std::__uniq_ptr_data.3" }
%"struct.std::__uniq_ptr_data.3" = type { %"class.std::__uniq_ptr_impl.4" }
%"class.std::__uniq_ptr_impl.4" = type { %"class.std::tuple.5" }
%"class.std::tuple.5" = type { %"struct.std::_Tuple_impl.6" }
%"struct.std::_Tuple_impl.6" = type { %"struct.std::_Head_base.9" }
%"struct.std::_Head_base.9" = type { ptr }
%"class.llvm::Triple" = type { %"class.std::__cxx11::basic_string", i32, i32, i32, i32, i32, i32 }
%"class.std::optional" = type { %"struct.std::_Optional_base" }
%"struct.std::_Optional_base" = type { %"struct.std::_Optional_payload" }
%"struct.std::_Optional_payload" = type { %"struct.std::_Optional_payload_base.base", [3 x i8] }
%"struct.std::_Optional_payload_base.base" = type <{ %"union.std::_Optional_payload_base<clang::driver::ToolChain::CXXStdlibType>::_Storage", i8 }>
%"union.std::_Optional_payload_base<clang::driver::ToolChain::CXXStdlibType>::_Storage" = type { i32 }
%"class.std::optional.10" = type { %"struct.std::_Optional_base.11" }
%"struct.std::_Optional_base.11" = type { %"struct.std::_Optional_payload.13" }
%"struct.std::_Optional_payload.13" = type { %"struct.std::_Optional_payload_base.base.15", [3 x i8] }
%"struct.std::_Optional_payload_base.base.15" = type <{ %"union.std::_Optional_payload_base<clang::driver::ToolChain::RuntimeLibType>::_Storage", i8 }>
%"union.std::_Optional_payload_base<clang::driver::ToolChain::RuntimeLibType>::_Storage" = type { i32 }
%"class.std::optional.18" = type { %"struct.std::_Optional_base.19" }
%"struct.std::_Optional_base.19" = type { %"struct.std::_Optional_payload.21" }
%"struct.std::_Optional_payload.21" = type { %"struct.std::_Optional_payload_base.base.23", [3 x i8] }
%"struct.std::_Optional_payload_base.base.23" = type <{ %"union.std::_Optional_payload_base<clang::driver::ToolChain::UnwindLibType>::_Storage", i8 }>
%"union.std::_Optional_payload_base<clang::driver::ToolChain::UnwindLibType>::_Storage" = type { i32 }
%"class.clang::driver::MultilibSet" = type { %"class.std::vector", %"class.std::vector.29", %"class.std::function", %"class.std::function" }
%"class.std::vector" = type { %"struct.std::_Vector_base" }
%"struct.std::_Vector_base" = type { %"struct.std::_Vector_base<clang::driver::Multilib, std::allocator<clang::driver::Multilib>>::_Vector_impl" }
%"struct.std::_Vector_base<clang::driver::Multilib, std::allocator<clang::driver::Multilib>>::_Vector_impl" = type { %"struct.std::_Vector_base<clang::driver::Multilib, std::allocator<clang::driver::Multilib>>::_Vector_impl_data" }
%"struct.std::_Vector_base<clang::driver::Multilib, std::allocator<clang::driver::Multilib>>::_Vector_impl_data" = type { ptr, ptr, ptr }
%"class.std::vector.29" = type { %"struct.std::_Vector_base.30" }
%"struct.std::_Vector_base.30" = type { %"struct.std::_Vector_base<clang::driver::MultilibSet::FlagMatcher, std::allocator<clang::driver::MultilibSet::FlagMatcher>>::_Vector_impl" }
%"struct.std::_Vector_base<clang::driver::MultilibSet::FlagMatcher, std::allocator<clang::driver::MultilibSet::FlagMatcher>>::_Vector_impl" = type { %"struct.std::_Vector_base<clang::driver::MultilibSet::FlagMatcher, std::allocator<clang::driver::MultilibSet::FlagMatcher>>::_Vector_impl_data" }
%"struct.std::_Vector_base<clang::driver::MultilibSet::FlagMatcher, std::allocator<clang::driver::MultilibSet::FlagMatcher>>::_Vector_impl_data" = type { ptr, ptr, ptr }
%"class.std::function" = type { %"class.std::_Function_base", ptr }
%"class.std::_Function_base" = type { %"union.std::_Any_data", ptr }
%"union.std::_Any_data" = type { %"union.std::_Nocopy_types" }
%"union.std::_Nocopy_types" = type { { i64, i64 } }

@_ZN5clang13SanitizerKind7AddressE = linkonce_odr constant %"class.clang::SanitizerMask" { [2 x i64] [i64 1, i64 0] }, comdat, align 8
@_ZN5clang13SanitizerKind13KernelAddressE = linkonce_odr constant %"class.clang::SanitizerMask" { [2 x i64] [i64 8, i64 0] }, comdat, align 8
@_ZN5clang13SanitizerKind14PointerCompareE = linkonce_odr constant %"class.clang::SanitizerMask" { [2 x i64] [i64 2, i64 0] }, comdat, align 8
@_ZN5clang13SanitizerKind15PointerSubtractE = linkonce_odr constant %"class.clang::SanitizerMask" { [2 x i64] [i64 4, i64 0] }, comdat, align 8
@_ZN5clang13SanitizerKind6FuzzerE = linkonce_odr constant %"class.clang::SanitizerMask" { [2 x i64] [i64 4096, i64 0] }, comdat, align 8
@_ZN5clang13SanitizerKind12FuzzerNoLinkE = linkonce_odr constant %"class.clang::SanitizerMask" { [2 x i64] [i64 8192, i64 0] }, comdat, align 8
@_ZN5clang13SanitizerKind4VptrE = linkonce_odr constant %"class.clang::SanitizerMask" { [2 x i64] [i64 8796093022208, i64 0] }, comdat, align 8
@_ZN5clang13SanitizerKind9SafeStackE = linkonce_odr constant %"class.clang::SanitizerMask" { [2 x i64] [i64 72057594037927936, i64 0] }, comdat, align 8
@_ZN5clang13SanitizerKind6ThreadE = linkonce_odr constant %"class.clang::SanitizerMask" { [2 x i64] [i64 16384, i64 0] }, comdat, align 8
@_ZN5clang13SanitizerKind5ScudoE = linkonce_odr constant %"class.clang::SanitizerMask" { [2 x i64] [i64 0, i64 256] }, comdat, align 8
@_ZN5clang13SanitizerKind9HWAddressE = linkonce_odr constant %"class.clang::SanitizerMask" { [2 x i64] [i64 16, i64 0] }, comdat, align 8
@_ZN5clang13SanitizerKind15KernelHWAddressE = linkonce_odr constant %"class.clang::SanitizerMask" { [2 x i64] [i64 32, i64 0] }, comdat, align 8

; Function Attrs: mustprogress nounwind uwtable
define linkonce_odr hidden noundef nonnull align 8 dereferenceable(16) ptr @_ZN5clang13SanitizerMaskoRERKS0_(ptr noundef nonnull align 8 dereferenceable(16) %0, ptr noundef nonnull align 8 dereferenceable(16) %1) #0 comdat align 2 {
  %3 = alloca ptr, align 8
  %4 = alloca ptr, align 8
  %5 = alloca i32, align 4
  store ptr %0, ptr %3, align 8
  store ptr %1, ptr %4, align 8
  %6 = load ptr, ptr %3, align 8
  store i32 0, ptr %5, align 4
  br label %7

7:                                                ; preds = %23, %2
  %8 = load i32, ptr %5, align 4
  %9 = icmp ult i32 %8, 2
  br i1 %9, label %10, label %26

10:                                               ; preds = %7
  %11 = load ptr, ptr %4, align 8
  %12 = getelementptr inbounds nuw %"class.clang::SanitizerMask", ptr %11, i32 0, i32 0
  %13 = load i32, ptr %5, align 4
  %14 = zext i32 %13 to i64
  %15 = getelementptr inbounds [2 x i64], ptr %12, i64 0, i64 %14
  %16 = load i64, ptr %15, align 8
  %17 = getelementptr inbounds nuw %"class.clang::SanitizerMask", ptr %6, i32 0, i32 0
  %18 = load i32, ptr %5, align 4
  %19 = zext i32 %18 to i64
  %20 = getelementptr inbounds [2 x i64], ptr %17, i64 0, i64 %19
  %21 = load i64, ptr %20, align 8
  %22 = or i64 %21, %16
  store i64 %22, ptr %20, align 8
  br label %23

23:                                               ; preds = %10
  %24 = load i32, ptr %5, align 4
  %25 = add i32 %24, 1
  store i32 %25, ptr %5, align 4
  br label %7, !llvm.loop !7

26:                                               ; preds = %7
  ret ptr %6
}

; Function Attrs: mustprogress nounwind uwtable
define linkonce_odr hidden noundef i32 @_ZNK4llvm6Triple7getArchEv(ptr noundef nonnull align 8 dereferenceable(56) %0) #0 comdat align 2 {
  %2 = alloca ptr, align 8
  store ptr %0, ptr %2, align 8
  %3 = load ptr, ptr %2, align 8
  %4 = getelementptr inbounds nuw %"class.llvm::Triple", ptr %3, i32 0, i32 1
  %5 = load i32, ptr %4, align 8
  ret i32 %5
}

; Function Attrs: mustprogress nounwind uwtable
define linkonce_odr hidden noundef nonnull align 8 dereferenceable(56) ptr @_ZNK5clang6driver9ToolChain9getTripleEv(ptr noundef nonnull align 8 dereferenceable(2168) %0) #0 comdat align 2 {
  %2 = alloca ptr, align 8
  store ptr %0, ptr %2, align 8
  %3 = load ptr, ptr %2, align 8
  %4 = getelementptr inbounds nuw %"class.clang::driver::ToolChain", ptr %3, i32 0, i32 2
  ret ptr %4
}

; Function Attrs: mustprogress nounwind uwtable
define hidden { i64, i64 } @_ZNK5clang6driver10toolchains9BareMetal22getSupportedSanitizersEv(ptr noundef nonnull align 8 dereferenceable(2168) %0) unnamed_addr #0 align 2 {
  %2 = alloca %"class.clang::SanitizerMask", align 8
  %3 = alloca ptr, align 8
  %4 = alloca i8, align 1
  %5 = alloca i8, align 1
  %6 = alloca i8, align 1
  store ptr %0, ptr %3, align 8
  %7 = load ptr, ptr %3, align 8
  %8 = call noundef nonnull align 8 dereferenceable(56) ptr @_ZNK5clang6driver9ToolChain9getTripleEv(ptr noundef nonnull align 8 dereferenceable(2168) %7)
  %9 = call noundef i32 @_ZNK4llvm6Triple7getArchEv(ptr noundef nonnull align 8 dereferenceable(56) %8)
  %10 = icmp eq i32 %9, 38
  %11 = zext i1 %10 to i8
  store i8 %11, ptr %4, align 1
  %12 = call noundef nonnull align 8 dereferenceable(56) ptr @_ZNK5clang6driver9ToolChain9getTripleEv(ptr noundef nonnull align 8 dereferenceable(2168) %7)
  %13 = call noundef i32 @_ZNK4llvm6Triple7getArchEv(ptr noundef nonnull align 8 dereferenceable(56) %12)
  %14 = icmp eq i32 %13, 3
  br i1 %14, label %19, label %15

15:                                               ; preds = %1
  %16 = call noundef nonnull align 8 dereferenceable(56) ptr @_ZNK5clang6driver9ToolChain9getTripleEv(ptr noundef nonnull align 8 dereferenceable(2168) %7)
  %17 = call noundef i32 @_ZNK4llvm6Triple7getArchEv(ptr noundef nonnull align 8 dereferenceable(56) %16)
  %18 = icmp eq i32 %17, 4
  br label %19

19:                                               ; preds = %15, %1
  %20 = phi i1 [ true, %1 ], [ %18, %15 ]
  %21 = zext i1 %20 to i8
  store i8 %21, ptr %5, align 1
  %22 = call noundef nonnull align 8 dereferenceable(56) ptr @_ZNK5clang6driver9ToolChain9getTripleEv(ptr noundef nonnull align 8 dereferenceable(2168) %7)
  %23 = call noundef i32 @_ZNK4llvm6Triple7getArchEv(ptr noundef nonnull align 8 dereferenceable(56) %22)
  %24 = icmp eq i32 %23, 28
  %25 = zext i1 %24 to i8
  store i8 %25, ptr %6, align 1
  %26 = call { i64, i64 } @_ZNK5clang6driver9ToolChain22getSupportedSanitizersEv(ptr noundef nonnull align 8 dereferenceable(2168) %7)
  %27 = getelementptr inbounds nuw %"class.clang::SanitizerMask", ptr %2, i32 0, i32 0
  %28 = getelementptr inbounds nuw { i64, i64 }, ptr %27, i32 0, i32 0
  %29 = extractvalue { i64, i64 } %26, 0
  store i64 %29, ptr %28, align 8
  %30 = getelementptr inbounds nuw { i64, i64 }, ptr %27, i32 0, i32 1
  %31 = extractvalue { i64, i64 } %26, 1
  store i64 %31, ptr %30, align 8
  %32 = call noundef nonnull align 8 dereferenceable(16) ptr @_ZN5clang13SanitizerMaskoRERKS0_(ptr noundef nonnull align 8 dereferenceable(16) %2, ptr noundef nonnull align 8 dereferenceable(16) @_ZN5clang13SanitizerKind7AddressE)
  %33 = call noundef nonnull align 8 dereferenceable(16) ptr @_ZN5clang13SanitizerMaskoRERKS0_(ptr noundef nonnull align 8 dereferenceable(16) %2, ptr noundef nonnull align 8 dereferenceable(16) @_ZN5clang13SanitizerKind13KernelAddressE)
  %34 = call noundef nonnull align 8 dereferenceable(16) ptr @_ZN5clang13SanitizerMaskoRERKS0_(ptr noundef nonnull align 8 dereferenceable(16) %2, ptr noundef nonnull align 8 dereferenceable(16) @_ZN5clang13SanitizerKind14PointerCompareE)
  %35 = call noundef nonnull align 8 dereferenceable(16) ptr @_ZN5clang13SanitizerMaskoRERKS0_(ptr noundef nonnull align 8 dereferenceable(16) %2, ptr noundef nonnull align 8 dereferenceable(16) @_ZN5clang13SanitizerKind15PointerSubtractE)
  %36 = call noundef nonnull align 8 dereferenceable(16) ptr @_ZN5clang13SanitizerMaskoRERKS0_(ptr noundef nonnull align 8 dereferenceable(16) %2, ptr noundef nonnull align 8 dereferenceable(16) @_ZN5clang13SanitizerKind6FuzzerE)
  %37 = call noundef nonnull align 8 dereferenceable(16) ptr @_ZN5clang13SanitizerMaskoRERKS0_(ptr noundef nonnull align 8 dereferenceable(16) %2, ptr noundef nonnull align 8 dereferenceable(16) @_ZN5clang13SanitizerKind12FuzzerNoLinkE)
  %38 = call noundef nonnull align 8 dereferenceable(16) ptr @_ZN5clang13SanitizerMaskoRERKS0_(ptr noundef nonnull align 8 dereferenceable(16) %2, ptr noundef nonnull align 8 dereferenceable(16) @_ZN5clang13SanitizerKind4VptrE)
  %39 = call noundef nonnull align 8 dereferenceable(16) ptr @_ZN5clang13SanitizerMaskoRERKS0_(ptr noundef nonnull align 8 dereferenceable(16) %2, ptr noundef nonnull align 8 dereferenceable(16) @_ZN5clang13SanitizerKind9SafeStackE)
  %40 = call noundef nonnull align 8 dereferenceable(16) ptr @_ZN5clang13SanitizerMaskoRERKS0_(ptr noundef nonnull align 8 dereferenceable(16) %2, ptr noundef nonnull align 8 dereferenceable(16) @_ZN5clang13SanitizerKind6ThreadE)
  %41 = call noundef nonnull align 8 dereferenceable(16) ptr @_ZN5clang13SanitizerMaskoRERKS0_(ptr noundef nonnull align 8 dereferenceable(16) %2, ptr noundef nonnull align 8 dereferenceable(16) @_ZN5clang13SanitizerKind5ScudoE)
  %42 = load i8, ptr %4, align 1
  %43 = trunc i8 %42 to i1
  br i1 %43, label %50, label %44

44:                                               ; preds = %19
  %45 = load i8, ptr %5, align 1
  %46 = trunc i8 %45 to i1
  br i1 %46, label %50, label %47

47:                                               ; preds = %44
  %48 = load i8, ptr %6, align 1
  %49 = trunc i8 %48 to i1
  br i1 %49, label %50, label %53

50:                                               ; preds = %47, %44, %19
  %51 = call noundef nonnull align 8 dereferenceable(16) ptr @_ZN5clang13SanitizerMaskoRERKS0_(ptr noundef nonnull align 8 dereferenceable(16) %2, ptr noundef nonnull align 8 dereferenceable(16) @_ZN5clang13SanitizerKind9HWAddressE)
  %52 = call noundef nonnull align 8 dereferenceable(16) ptr @_ZN5clang13SanitizerMaskoRERKS0_(ptr noundef nonnull align 8 dereferenceable(16) %2, ptr noundef nonnull align 8 dereferenceable(16) @_ZN5clang13SanitizerKind15KernelHWAddressE)
  br label %53

53:                                               ; preds = %50, %47
  %54 = getelementptr inbounds nuw %"class.clang::SanitizerMask", ptr %2, i32 0, i32 0
  %55 = load { i64, i64 }, ptr %54, align 8
  ret { i64, i64 } %55
}