; Function Attrs: mustprogress nounwind uwtable
define hidden { i64, i64 } @_ZNK5clang6driver10toolchains9BareMetal22getSupportedSanitizersEv(ptr noundef nonnull align 8 dereferenceable(2168) %0) unnamed_addr #0 align 2 {
_ZN5clang13SanitizerMaskoRERKS0_.exit.critedge:
  %1 = getelementptr inbounds nuw i8, ptr %0, i64 48
  %2 = load i32, ptr %1, align 8
  %3 = tail call { i64, i64 } @_ZNK5clang6driver9ToolChain22getSupportedSanitizersEv(ptr noundef nonnull align 8 dereferenceable(2168) %0) #15
  %4 = extractvalue { i64, i64 } %3, 0
  %5 = or i64 %4, 72066390130978831
  switch i32 %2, label %_ZN5clang13SanitizerMaskoRERKS0_.exit25 [
    i32 38, label %_ZN5clang13SanitizerMaskoRERKS0_.exit23.critedge
    i32 28, label %_ZN5clang13SanitizerMaskoRERKS0_.exit23.critedge
    i32 4, label %_ZN5clang13SanitizerMaskoRERKS0_.exit23.critedge
    i32 3, label %_ZN5clang13SanitizerMaskoRERKS0_.exit23.critedge
  ]

_ZN5clang13SanitizerMaskoRERKS0_.exit23.critedge: ; preds = %_ZN5clang13SanitizerMaskoRERKS0_.exit.critedge, %_ZN5clang13SanitizerMaskoRERKS0_.exit.critedge, %_ZN5clang13SanitizerMaskoRERKS0_.exit.critedge, %_ZN5clang13SanitizerMaskoRERKS0_.exit.critedge
  %6 = or i64 %4, 72066390130978879
  br label %_ZN5clang13SanitizerMaskoRERKS0_.exit25

_ZN5clang13SanitizerMaskoRERKS0_.exit25:          ; preds = %_ZN5clang13SanitizerMaskoRERKS0_.exit.critedge, %_ZN5clang13SanitizerMaskoRERKS0_.exit23.critedge
  %.sroa.0.0 = phi i64 [ %5, %_ZN5clang13SanitizerMaskoRERKS0_.exit.critedge ], [ %6, %_ZN5clang13SanitizerMaskoRERKS0_.exit23.critedge ]
  %7 = extractvalue { i64, i64 } %3, 1
  %8 = or i64 %7, 256
  %.fca.0.insert = insertvalue { i64, i64 } poison, i64 %.sroa.0.0, 0
  %.fca.1.insert = insertvalue { i64, i64 } %.fca.0.insert, i64 %8, 1
  ret { i64, i64 } %.fca.1.insert
}